; Function Attrs: nounwind uwtable
define void @lv_obj_set_pos(ptr noundef %0, i32 noundef %1, i32 noundef %2) local_unnamed_addr #0 {
  %4 = alloca %union.lv_style_value_t, align 8
  %5 = alloca %union.lv_style_value_t, align 8
  call void @llvm.lifetime.start.p0(i64 8, ptr nonnull %5) #8
  %6 = call i32 @lv_obj_get_local_style_prop(ptr noundef %0, i8 noundef zeroext 8, ptr noundef nonnull %5, i32 noundef 0) #8
  switch i32 %6, label %lv_obj_set_x.exit [
    i32 1, label %7
    i32 0, label %9
  ]

7:                                                ; preds = %3
  %8 = load i32, ptr %5, align 8, !tbaa !3
  %.not.i = icmp eq i32 %8, %1
  br i1 %.not.i, label %lv_obj_set_x.exit, label %9

9:                                                ; preds = %7, %3
  call void @lv_obj_set_style_x(ptr noundef %0, i32 noundef %1, i32 noundef 0) #8
  br label %lv_obj_set_x.exit

lv_obj_set_x.exit:                                ; preds = %3, %7, %9
  call void @llvm.lifetime.end.p0(i64 8, ptr nonnull %5) #8
  call void @llvm.lifetime.start.p0(i64 8, ptr nonnull %4) #8
  %10 = call i32 @lv_obj_get_local_style_prop(ptr noundef %0, i8 noundef zeroext 9, ptr noundef nonnull %4, i32 noundef 0) #8
  switch i32 %10, label %lv_obj_set_y.exit [
    i32 1, label %11
    i32 0, label %13
  ]

11:                                               ; preds = %lv_obj_set_x.exit
  %12 = load i32, ptr %4, align 8, !tbaa !3
  %.not.i3 = icmp eq i32 %12, %2
  br i1 %.not.i3, label %lv_obj_set_y.exit, label %13

13:                                               ; preds = %11, %lv_obj_set_x.exit
  call void @lv_obj_set_style_y(ptr noundef %0, i32 noundef %2, i32 noundef 0) #8
  br label %lv_obj_set_y.exit

lv_obj_set_y.exit:                                ; preds = %lv_obj_set_x.exit, %11, %13
  call void @llvm.lifetime.end.p0(i64 8, ptr nonnull %4) #8
  ret void
}